target datalayout = "e-m:e-p270:32:32-p271:32:32-p272:64:64-i64:64-i128:128-f80:128-n8:16:32:64-S128"
target triple = "x86_64-pc-linux-gnu"

%struct.rb_data_type_struct = type { ptr, %struct.anon, ptr, ptr, i64 }
%struct.anon = type { ptr, ptr, ptr, ptr, [1 x ptr] }
%struct.rb_random_mt_t = type { %struct.rb_random_struct, %struct.MT }
%struct.rb_random_struct = type { i64 }
%struct.MT = type { [624 x i32], ptr, i32 }

@random_mt_type = internal constant %struct.rb_data_type_struct { ptr @.str.24, %struct.anon { ptr @rb_random_mark, ptr inttoptr (i64 -1 to ptr), ptr @random_mt_memsize, ptr null, [1 x ptr] zeroinitializer }, ptr @rb_random_data_type_1_0, ptr @random_mt_if, i64 1 }, align 8

; Function Attrs: nounwind sspstrong uwtable
define internal ptr @get_rnd_mt(i64 noundef %0) #0 {
  %2 = alloca i64, align 8
  %3 = alloca ptr, align 8
  store i64 %0, ptr %2, align 8, !tbaa !26
  call void @llvm.lifetime.start.p0(i64 8, ptr %3) #24
  %4 = load i64, ptr %2, align 8, !tbaa !26
  %5 = call ptr @rb_check_typeddata(i64 noundef %4, ptr noundef @random_mt_type)
  store ptr %5, ptr %3, align 8, !tbaa !20
  %6 = load ptr, ptr %3, align 8, !tbaa !20
  call void @llvm.lifetime.end.p0(i64 8, ptr %3) #24
  ret ptr %6
}

; Function Attrs: nounwind sspstrong uwtable
define internal i64 @rand_mt_copy(i64 noundef %0, i64 noundef %1) #0 {
  %3 = alloca i64, align 8
  %4 = alloca i64, align 8
  %5 = alloca i64, align 8
  %6 = alloca ptr, align 8
  %7 = alloca ptr, align 8
  %8 = alloca ptr, align 8
  %9 = alloca i32, align 4
  store i64 %0, ptr %4, align 8, !tbaa !26
  store i64 %1, ptr %5, align 8, !tbaa !26
  call void @llvm.lifetime.start.p0(i64 8, ptr %6) #24
  call void @llvm.lifetime.start.p0(i64 8, ptr %7) #24
  call void @llvm.lifetime.start.p0(i64 8, ptr %8) #24
  %10 = load i64, ptr %4, align 8, !tbaa !26
  %11 = load i64, ptr %5, align 8, !tbaa !26
  %12 = icmp ne i64 %10, %11
  br i1 %12, label %13, label %17

13:                                               ; preds = %2
  %14 = load i64, ptr %4, align 8, !tbaa !26
  %15 = load i64, ptr %5, align 8, !tbaa !26
  %16 = call i64 @rb_obj_init_copy(i64 noundef %14, i64 noundef %15)
  br i1 true, label %19, label %17

17:                                               ; preds = %13, %2
  %18 = load i64, ptr %4, align 8, !tbaa !26
  store i64 %18, ptr %3, align 8
  store i32 1, ptr %9, align 4
  br label %42

19:                                               ; preds = %13
  %20 = load i64, ptr %4, align 8, !tbaa !26
  %21 = call ptr @get_rnd_mt(i64 noundef %20)
  store ptr %21, ptr %6, align 8, !tbaa !20
  %22 = load i64, ptr %5, align 8, !tbaa !26
  %23 = call ptr @get_rnd_mt(i64 noundef %22)
  store ptr %23, ptr %7, align 8, !tbaa !20
  %24 = load ptr, ptr %6, align 8, !tbaa !20
  %25 = getelementptr inbounds nuw %struct.rb_random_mt_t, ptr %24, i32 0, i32 1
  store ptr %25, ptr %8, align 8, !tbaa !12
  %26 = load ptr, ptr %6, align 8, !tbaa !20
  %27 = load ptr, ptr %7, align 8, !tbaa !20
  call void @llvm.memcpy.p0.p0.i64(ptr align 8 %26, ptr align 8 %27, i64 2520, i1 false), !tbaa.struct !75
  %28 = load ptr, ptr %8, align 8, !tbaa !12
  %29 = getelementptr inbounds nuw %struct.MT, ptr %28, i32 0, i32 0
  %30 = getelementptr inbounds [624 x i32], ptr %29, i64 0, i64 0
  %31 = getelementptr i32, ptr %30, i64 624
  %32 = load ptr, ptr %8, align 8, !tbaa !12
  %33 = getelementptr inbounds nuw %struct.MT, ptr %32, i32 0, i32 2
  %34 = load i32, ptr %33, align 8, !tbaa !14
  %35 = sext i32 %34 to i64
  %36 = sub i64 0, %35
  %37 = getelementptr i32, ptr %31, i64 %36
  %38 = getelementptr i32, ptr %37, i64 1
  %39 = load ptr, ptr %8, align 8, !tbaa !12
  %40 = getelementptr inbounds nuw %struct.MT, ptr %39, i32 0, i32 1
  store ptr %38, ptr %40, align 8, !tbaa !18
  %41 = load i64, ptr %4, align 8, !tbaa !26
  store i64 %41, ptr %3, align 8
  store i32 1, ptr %9, align 4
  br label %42

42:                                               ; preds = %19, %17
  call void @llvm.lifetime.end.p0(i64 8, ptr %8) #24
  call void @llvm.lifetime.end.p0(i64 8, ptr %7) #24
  call void @llvm.lifetime.end.p0(i64 8, ptr %6) #24
  %43 = load i64, ptr %3, align 8
  ret i64 %43
}