; Function Attrs: nounwind sspstrong uwtable
define internal noundef i64 @rand_mt_copy(i64 noundef returned %0, i64 noundef %1) #0 {
  %.not = icmp eq i64 %0, %1
  br i1 %.not, label %14, label %3

3:                                                ; preds = %2
  %4 = tail call i64 @rb_obj_init_copy(i64 noundef %0, i64 noundef %1) #23
  %5 = tail call ptr @rb_check_typeddata(i64 noundef %0, ptr noundef nonnull @random_mt_type) #23
  %6 = tail call ptr @rb_check_typeddata(i64 noundef %1, ptr noundef nonnull @random_mt_type) #23
  tail call void @llvm.memcpy.p0.p0.i64(ptr noundef nonnull align 8 dereferenceable(2520) %5, ptr noundef nonnull align 8 dereferenceable(2520) %6, i64 2520, i1 false), !tbaa.struct !80
  %7 = getelementptr i8, ptr %5, i64 2504
  %8 = getelementptr inbounds nuw i8, ptr %5, i64 2512
  %9 = load i32, ptr %8, align 8, !tbaa !20
  %10 = sext i32 %9 to i64
  %11 = sub nsw i64 0, %10
  %12 = getelementptr i32, ptr %7, i64 %11
  %13 = getelementptr i8, ptr %12, i64 4
  store ptr %13, ptr %7, align 8, !tbaa !21
  br label %14

14:                                               ; preds = %2, %3
  ret i64 %0
}